target datalayout = "e-m:e-p270:32:32-p271:32:32-p272:64:64-i64:64-i128:128-f80:128-n8:16:32:64-S128"
target triple = "x86_64-pc-linux-gnu"

%"class.icu_77::EmojiProps" = type { ptr, ptr, [6 x ptr] }
%"class.icu_77::UCharsTrie" = type <{ ptr, ptr, ptr, i32, [4 x i8] }>
%"class.icu_77::ConstChar16Ptr" = type { ptr }

; Function Attrs: inlinehint mustprogress nounwind uwtable
define linkonce_odr noundef ptr @_ZNK6icu_7714ConstChar16Ptr3getEv(ptr noundef nonnull align 8 dereferenceable(8) %0) #4 comdat align 2 {
  %2 = alloca ptr, align 8
  store ptr %0, ptr %2, align 8, !tbaa !58
  %3 = load ptr, ptr %2, align 8
  %4 = getelementptr inbounds nuw %"class.icu_77::ConstChar16Ptr", ptr %3, i32 0, i32 0
  %5 = load ptr, ptr %4, align 8, !tbaa !60
  ret ptr %5
}

; Function Attrs: inlinehint mustprogress uwtable
define linkonce_odr noundef ptr @_ZNK6icu_7714ConstChar16PtrcvPKDsEv(ptr noundef nonnull align 8 dereferenceable(8) %0) #5 comdat align 2 {
  %2 = alloca ptr, align 8
  store ptr %0, ptr %2, align 8, !tbaa !58
  %3 = load ptr, ptr %2, align 8
  %4 = call noundef ptr @_ZNK6icu_7714ConstChar16Ptr3getEv(ptr noundef nonnull align 8 dereferenceable(8) %3)
  ret ptr %4
}

; Function Attrs: inlinehint mustprogress nounwind uwtable
define linkonce_odr void @_ZN6icu_7714ConstChar16PtrD2Ev(ptr noundef nonnull align 8 dereferenceable(8) %0) unnamed_addr #4 comdat align 2 {
  %2 = alloca ptr, align 8
  store ptr %0, ptr %2, align 8, !tbaa !58
  %3 = load ptr, ptr %2, align 8
  %4 = getelementptr inbounds nuw %"class.icu_77::ConstChar16Ptr", ptr %3, i32 0, i32 0
  %5 = load ptr, ptr %4, align 8, !tbaa !60
  call void asm sideeffect "", "rm,~{memory},~{dirflag},~{fpsr},~{flags}"(ptr %5) #11, !srcloc !69
  ret void
}

; Function Attrs: mustprogress uwtable
define linkonce_odr void @_ZN6icu_7710UCharsTrieC2ENS_14ConstChar16PtrE(ptr noundef nonnull align 8 dereferenceable(28) %0, ptr noundef %1) unnamed_addr #3 comdat align 2 {
  %3 = alloca ptr, align 8
  %4 = alloca ptr, align 8
  store ptr %0, ptr %3, align 8, !tbaa !62
  store ptr %1, ptr %4, align 8, !tbaa !58
  %5 = load ptr, ptr %3, align 8
  %6 = getelementptr inbounds nuw %"class.icu_77::UCharsTrie", ptr %5, i32 0, i32 0
  store ptr null, ptr %6, align 8, !tbaa !64
  %7 = getelementptr inbounds nuw %"class.icu_77::UCharsTrie", ptr %5, i32 0, i32 1
  %8 = call noundef ptr @_ZNK6icu_7714ConstChar16PtrcvPKDsEv(ptr noundef nonnull align 8 dereferenceable(8) %1)
  store ptr %8, ptr %7, align 8, !tbaa !66
  %9 = getelementptr inbounds nuw %"class.icu_77::UCharsTrie", ptr %5, i32 0, i32 2
  %10 = getelementptr inbounds nuw %"class.icu_77::UCharsTrie", ptr %5, i32 0, i32 1
  %11 = load ptr, ptr %10, align 8, !tbaa !66
  store ptr %11, ptr %9, align 8, !tbaa !67
  %12 = getelementptr inbounds nuw %"class.icu_77::UCharsTrie", ptr %5, i32 0, i32 3
  store i32 -1, ptr %12, align 8, !tbaa !68
  ret void
}

; Function Attrs: inlinehint mustprogress nounwind uwtable
define linkonce_odr void @_ZN6icu_7714ConstChar16PtrC2EPKDs(ptr noundef nonnull align 8 dereferenceable(8) %0, ptr noundef %1) unnamed_addr #4 comdat align 2 {
  %3 = alloca ptr, align 8
  %4 = alloca ptr, align 8
  store ptr %0, ptr %3, align 8, !tbaa !58
  store ptr %1, ptr %4, align 8, !tbaa !25
  %5 = load ptr, ptr %3, align 8
  %6 = getelementptr inbounds nuw %"class.icu_77::ConstChar16Ptr", ptr %5, i32 0, i32 0
  %7 = load ptr, ptr %4, align 8, !tbaa !25
  store ptr %7, ptr %6, align 8, !tbaa !60
  ret void
}

; Function Attrs: mustprogress uwtable
define noundef signext i8 @_ZNK6icu_7710EmojiProps21hasBinaryPropertyImplEPKDsi9UProperty(ptr noundef nonnull align 8 dereferenceable(64) %0, ptr noundef %1, i32 noundef %2, i32 noundef %3) #3 align 2 personality ptr @__gxx_personality_v0 {
  %5 = alloca i8, align 1
  %6 = alloca ptr, align 8
  %7 = alloca ptr, align 8
  %8 = alloca i32, align 4
  %9 = alloca i32, align 4
  %10 = alloca i32, align 4
  %11 = alloca i32, align 4
  %12 = alloca i32, align 4
  %13 = alloca i32, align 4
  %14 = alloca ptr, align 8
  %15 = alloca %"class.icu_77::UCharsTrie", align 8
  %16 = alloca %"class.icu_77::ConstChar16Ptr", align 8
  %17 = alloca ptr, align 8
  %18 = alloca i32, align 4
  %19 = alloca i32, align 4
  %20 = alloca %"class.icu_77::ConstChar16Ptr", align 8
  store ptr %0, ptr %6, align 8, !tbaa !3
  store ptr %1, ptr %7, align 8, !tbaa !25
  store i32 %2, ptr %8, align 4, !tbaa !37
  store i32 %3, ptr %9, align 4, !tbaa !47
  %21 = load ptr, ptr %6, align 8
  %22 = load ptr, ptr %7, align 8, !tbaa !25
  %23 = icmp eq ptr %22, null
  br i1 %23, label %24, label %28

24:                                               ; preds = %4
  %25 = load i32, ptr %8, align 4, !tbaa !37
  %26 = icmp ne i32 %25, 0
  br i1 %26, label %27, label %28

27:                                               ; preds = %24
  store i8 0, ptr %5, align 1
  br label %109

28:                                               ; preds = %24, %4
  %29 = load i32, ptr %8, align 4, !tbaa !37
  %30 = icmp sle i32 %29, 0
  br i1 %30, label %31, label %40

31:                                               ; preds = %28
  %32 = load i32, ptr %8, align 4, !tbaa !37
  %33 = icmp eq i32 %32, 0
  br i1 %33, label %39, label %34

34:                                               ; preds = %31
  %35 = load ptr, ptr %7, align 8, !tbaa !25
  %36 = load i16, ptr %35, align 2, !tbaa !33
  %37 = zext i16 %36 to i32
  %38 = icmp eq i32 %37, 0
  br i1 %38, label %39, label %40

39:                                               ; preds = %34, %31
  store i8 0, ptr %5, align 1
  br label %109

40:                                               ; preds = %34, %28
  %41 = load i32, ptr %9, align 4, !tbaa !47
  %42 = icmp slt i32 %41, 65
  br i1 %42, label %46, label %43

43:                                               ; preds = %40
  %44 = load i32, ptr %9, align 4, !tbaa !47
  %45 = icmp slt i32 71, %44
  br i1 %45, label %46, label %47

46:                                               ; preds = %43, %40
  store i8 0, ptr %5, align 1
  br label %109

47:                                               ; preds = %43
  call void @llvm.lifetime.start.p0(i64 4, ptr %10) #11
  %48 = load i32, ptr %9, align 4, !tbaa !47
  store i32 %48, ptr %10, align 4, !tbaa !47
  call void @llvm.lifetime.start.p0(i64 4, ptr %11) #11
  %49 = load i32, ptr %9, align 4, !tbaa !47
  store i32 %49, ptr %11, align 4, !tbaa !47
  %50 = load i32, ptr %9, align 4, !tbaa !47
  %51 = icmp eq i32 %50, 71
  br i1 %51, label %52, label %53

52:                                               ; preds = %47
  store i32 65, ptr %10, align 4, !tbaa !47
  store i32 70, ptr %11, align 4, !tbaa !47
  br label %53

53:                                               ; preds = %52, %47
  call void @llvm.lifetime.start.p0(i64 4, ptr %12) #11
  %54 = load i32, ptr %10, align 4, !tbaa !47
  store i32 %54, ptr %12, align 4, !tbaa !37
  br label %55

55:                                               ; preds = %102, %53
  %56 = load i32, ptr %12, align 4, !tbaa !37
  %57 = load i32, ptr %11, align 4, !tbaa !47
  %58 = icmp sle i32 %56, %57
  br i1 %58, label %60, label %59

59:                                               ; preds = %55
  store i32 2, ptr %13, align 4
  br label %105

60:                                               ; preds = %55
  call void @llvm.lifetime.start.p0(i64 8, ptr %14) #11
  %61 = getelementptr inbounds nuw %"class.icu_77::EmojiProps", ptr %21, i32 0, i32 2
  %62 = load i32, ptr %12, align 4, !tbaa !37
  %63 = sub nsw i32 %62, 65
  %64 = sext i32 %63 to i64
  %65 = getelementptr inbounds [6 x ptr], ptr %61, i64 0, i64 %64
  %66 = load ptr, ptr %65, align 8, !tbaa !25
  store ptr %66, ptr %14, align 8, !tbaa !25
  %67 = load ptr, ptr %14, align 8, !tbaa !25
  %68 = icmp ne ptr %67, null
  br i1 %68, label %69, label %98

69:                                               ; preds = %60
  call void @llvm.lifetime.start.p0(i64 32, ptr %15) #11
  %70 = load ptr, ptr %14, align 8, !tbaa !25
  call void @_ZN6icu_7714ConstChar16PtrC2EPKDs(ptr noundef nonnull align 8 dereferenceable(8) %16, ptr noundef %70)
  invoke void @_ZN6icu_7710UCharsTrieC2ENS_14ConstChar16PtrE(ptr noundef nonnull align 8 dereferenceable(28) %15, ptr noundef %16)
          to label %71 unwind label %80

71:                                               ; preds = %69
  call void @_ZN6icu_7714ConstChar16PtrD2Ev(ptr noundef nonnull align 8 dereferenceable(8) %16) #11
  call void @llvm.lifetime.start.p0(i64 4, ptr %19) #11
  %72 = load ptr, ptr %7, align 8, !tbaa !25
  invoke void @_ZN6icu_7714ConstChar16PtrC2EPKDs(ptr noundef nonnull align 8 dereferenceable(8) %20, ptr noundef %72)
          to label %73 unwind label %84

73:                                               ; preds = %71
  %74 = load i32, ptr %8, align 4, !tbaa !37
  %75 = invoke noundef i32 @_ZN6icu_7710UCharsTrie4nextENS_14ConstChar16PtrEi(ptr noundef nonnull align 8 dereferenceable(28) %15, ptr noundef %20, i32 noundef %74)
          to label %76 unwind label %88

76:                                               ; preds = %73
  call void @_ZN6icu_7714ConstChar16PtrD2Ev(ptr noundef nonnull align 8 dereferenceable(8) %20) #11
  store i32 %75, ptr %19, align 4, !tbaa !55
  %77 = load i32, ptr %19, align 4, !tbaa !55
  %78 = icmp sge i32 %77, 2
  br i1 %78, label %79, label %92

79:                                               ; preds = %76
  store i8 1, ptr %5, align 1
  store i32 1, ptr %13, align 4
  br label %93

80:                                               ; preds = %69
  %81 = landingpad { ptr, i32 }
          cleanup
  %82 = extractvalue { ptr, i32 } %81, 0
  store ptr %82, ptr %17, align 8
  %83 = extractvalue { ptr, i32 } %81, 1
  store i32 %83, ptr %18, align 4
  call void @_ZN6icu_7714ConstChar16PtrD2Ev(ptr noundef nonnull align 8 dereferenceable(8) %16) #11
  br label %97

84:                                               ; preds = %71
  %85 = landingpad { ptr, i32 }
          cleanup
  %86 = extractvalue { ptr, i32 } %85, 0
  store ptr %86, ptr %17, align 8
  %87 = extractvalue { ptr, i32 } %85, 1
  store i32 %87, ptr %18, align 4
  br label %96

88:                                               ; preds = %73
  %89 = landingpad { ptr, i32 }
          cleanup
  %90 = extractvalue { ptr, i32 } %89, 0
  store ptr %90, ptr %17, align 8
  %91 = extractvalue { ptr, i32 } %89, 1
  store i32 %91, ptr %18, align 4
  call void @_ZN6icu_7714ConstChar16PtrD2Ev(ptr noundef nonnull align 8 dereferenceable(8) %20) #11
  br label %96

92:                                               ; preds = %76
  store i32 0, ptr %13, align 4
  br label %93

93:                                               ; preds = %92, %79
  call void @llvm.lifetime.end.p0(i64 4, ptr %19) #11
  call void @_ZN6icu_7710UCharsTrieD1Ev(ptr noundef nonnull align 8 dereferenceable(28) %15) #11
  call void @llvm.lifetime.end.p0(i64 32, ptr %15) #11
  %94 = load i32, ptr %13, align 4
  switch i32 %94, label %99 [
    i32 0, label %95
  ]

95:                                               ; preds = %93
  br label %98

96:                                               ; preds = %88, %84
  call void @llvm.lifetime.end.p0(i64 4, ptr %19) #11
  call void @_ZN6icu_7710UCharsTrieD1Ev(ptr noundef nonnull align 8 dereferenceable(28) %15) #11
  br label %97

97:                                               ; preds = %96, %80
  call void @llvm.lifetime.end.p0(i64 32, ptr %15) #11
  call void @llvm.lifetime.end.p0(i64 8, ptr %14) #11
  call void @llvm.lifetime.end.p0(i64 4, ptr %12) #11
  call void @llvm.lifetime.end.p0(i64 4, ptr %11) #11
  call void @llvm.lifetime.end.p0(i64 4, ptr %10) #11
  br label %111

98:                                               ; preds = %95, %60
  store i32 0, ptr %13, align 4
  br label %99

99:                                               ; preds = %98, %93
  call void @llvm.lifetime.end.p0(i64 8, ptr %14) #11
  %100 = load i32, ptr %13, align 4
  switch i32 %100, label %105 [
    i32 0, label %101
  ]

101:                                              ; preds = %99
  br label %102

102:                                              ; preds = %101
  %103 = load i32, ptr %12, align 4, !tbaa !37
  %104 = add nsw i32 %103, 1
  store i32 %104, ptr %12, align 4, !tbaa !37
  br label %55, !llvm.loop !57

105:                                              ; preds = %99, %59
  call void @llvm.lifetime.end.p0(i64 4, ptr %12) #11
  %106 = load i32, ptr %13, align 4
  switch i32 %106, label %108 [
    i32 2, label %107
  ]

107:                                              ; preds = %105
  store i8 0, ptr %5, align 1
  store i32 1, ptr %13, align 4
  br label %108

108:                                              ; preds = %107, %105
  call void @llvm.lifetime.end.p0(i64 4, ptr %11) #11
  call void @llvm.lifetime.end.p0(i64 4, ptr %10) #11
  br label %109

109:                                              ; preds = %108, %46, %39, %27
  %110 = load i8, ptr %5, align 1
  ret i8 %110

111:                                              ; preds = %97
  %112 = load ptr, ptr %17, align 8
  %113 = load i32, ptr %18, align 4
  %114 = insertvalue { ptr, i32 } poison, ptr %112, 0
  %115 = insertvalue { ptr, i32 } %114, i32 %113, 1
  resume { ptr, i32 } %115
}