; Function Attrs: mustprogress uwtable
define noundef signext range(i8 0, 2) i8 @_ZNK6icu_7710EmojiProps21hasBinaryPropertyImplEPKDsi9UProperty(ptr noundef nonnull readonly align 8 captures(none) dereferenceable(64) %0, ptr noundef %1, i32 noundef %2, i32 noundef %3) local_unnamed_addr #4 align 2 personality ptr @__gxx_personality_v0 {
  %5 = alloca %"class.icu_77::UCharsTrie", align 8
  %6 = alloca %"class.icu_77::ConstChar16Ptr", align 8
  %7 = icmp eq ptr %1, null
  %8 = icmp ne i32 %2, 0
  %or.cond = and i1 %7, %8
  br i1 %or.cond, label %._crit_edge, label %9

9:                                                ; preds = %4
  %10 = icmp slt i32 %2, 1
  br i1 %10, label %11, label %17

11:                                               ; preds = %9
  %12 = icmp eq i32 %2, 0
  br i1 %12, label %._crit_edge, label %13

13:                                               ; preds = %11
  %14 = load i16, ptr %1, align 2, !tbaa !40
  %15 = icmp eq i16 %14, 0
  %16 = add i32 %3, -72
  %or.cond5 = icmp ult i32 %16, -7
  %or.cond46 = or i1 %or.cond5, %15
  br i1 %or.cond46, label %._crit_edge, label %18

17:                                               ; preds = %9
  %.old = add i32 %3, -72
  %or.cond5.old = icmp ult i32 %.old, -7
  br i1 %or.cond5.old, label %._crit_edge, label %18

18:                                               ; preds = %13, %17
  %19 = icmp eq i32 %3, 71
  %spec.select = select i1 %19, i32 70, i32 %3
  %spec.select44 = select i1 %19, i32 65, i32 %3
  %.not50.not = icmp samesign ugt i32 %spec.select44, %spec.select
  br i1 %.not50.not, label %._crit_edge, label %.lr.ph

.lr.ph:                                           ; preds = %18
  %20 = getelementptr inbounds nuw i8, ptr %0, i64 16
  %21 = getelementptr inbounds nuw i8, ptr %5, i64 8
  %22 = getelementptr inbounds nuw i8, ptr %5, i64 16
  %23 = getelementptr inbounds nuw i8, ptr %5, i64 24
  %24 = zext nneg i32 %spec.select44 to i64
  br label %25

25:                                               ; preds = %.lr.ph, %.critedge
  %indvars.iv = phi i64 [ %24, %.lr.ph ], [ %indvars.iv.next, %.critedge ]
  %26 = trunc nuw i64 %indvars.iv to i32
  %27 = add nuw i64 %indvars.iv, 4294967231
  %28 = and i64 %27, 4294967295
  %29 = getelementptr inbounds nuw [6 x ptr], ptr %20, i64 0, i64 %28
  %30 = load ptr, ptr %29, align 8, !tbaa !15
  %.not42 = icmp eq ptr %30, null
  br i1 %.not42, label %.critedge, label %31

31:                                               ; preds = %25
  call void @llvm.lifetime.start.p0(i64 32, ptr nonnull %5) #10
  store ptr null, ptr %5, align 8, !tbaa !42
  store ptr %30, ptr %21, align 8, !tbaa !44
  store ptr %30, ptr %22, align 8, !tbaa !45
  store i32 -1, ptr %23, align 8, !tbaa !46
  call void asm sideeffect "", "rm,~{memory},~{dirflag},~{fpsr},~{flags}"(ptr nonnull %30) #10, !srcloc !47
  store ptr %1, ptr %6, align 8, !tbaa !48
  %32 = invoke noundef i32 @_ZN6icu_7710UCharsTrie4nextENS_14ConstChar16PtrEi(ptr noundef nonnull align 8 dereferenceable(28) %5, ptr noundef nonnull %6, i32 noundef %2)
          to label %33 unwind label %36

33:                                               ; preds = %31
  %34 = load ptr, ptr %6, align 8, !tbaa !48
  call void asm sideeffect "", "rm,~{memory},~{dirflag},~{fpsr},~{flags}"(ptr %34) #10, !srcloc !47
  %35 = icmp slt i32 %32, 2
  call void @_ZN6icu_7710UCharsTrieD1Ev(ptr noundef nonnull align 8 dereferenceable(28) %5) #10
  call void @llvm.lifetime.end.p0(i64 32, ptr nonnull %5) #10
  br i1 %35, label %.critedge, label %._crit_edge

36:                                               ; preds = %31
  %37 = landingpad { ptr, i32 }
          cleanup
  %38 = load ptr, ptr %6, align 8, !tbaa !48
  call void asm sideeffect "", "rm,~{memory},~{dirflag},~{fpsr},~{flags}"(ptr %38) #10, !srcloc !47
  call void @_ZN6icu_7710UCharsTrieD1Ev(ptr noundef nonnull align 8 dereferenceable(28) %5) #10
  call void @llvm.lifetime.end.p0(i64 32, ptr nonnull %5) #10
  resume { ptr, i32 } %37

.critedge:                                        ; preds = %33, %25
  %indvars.iv.next = add nuw nsw i64 %indvars.iv, 1
  %.not = icmp sgt i32 %spec.select, %26
  br i1 %.not, label %25, label %._crit_edge, !llvm.loop !50

._crit_edge:                                      ; preds = %33, %.critedge, %18, %17, %11, %13, %4
  %.0 = phi i8 [ 0, %4 ], [ 0, %13 ], [ 0, %11 ], [ 0, %17 ], [ 0, %18 ], [ 1, %33 ], [ 0, %.critedge ]
  ret i8 %.0
}